	.file	"main.c"
	.text
	.def	scanf;	.scl	3;	.type	32;	.endef
	.seh_proc	scanf
scanf:
	pushq	%rbp
	.seh_pushreg	%rbp
	pushq	%rbx
	.seh_pushreg	%rbx
	subq	$56, %rsp
	.seh_stackalloc	56
	leaq	48(%rsp), %rbp
	.seh_setframe	%rbp, 48
	.seh_endprologue
	movq	%rcx, 32(%rbp)
	movq	%rdx, 40(%rbp)
	movq	%r8, 48(%rbp)
	movq	%r9, 56(%rbp)
	leaq	40(%rbp), %rax
	movq	%rax, -16(%rbp)
	movq	-16(%rbp), %rbx
	movl	$0, %ecx
	movq	__imp___acrt_iob_func(%rip), %rax
	call	*%rax
	movq	%rax, %rcx
	movq	32(%rbp), %rax
	movq	%rbx, %r8
	movq	%rax, %rdx
	call	__mingw_vfscanf
	movl	%eax, -4(%rbp)
	movl	-4(%rbp), %eax
	addq	$56, %rsp
	popq	%rbx
	popq	%rbp
	ret
	.seh_endproc
	.def	printf;	.scl	3;	.type	32;	.endef
	.seh_proc	printf
printf:
	pushq	%rbp
	.seh_pushreg	%rbp
	pushq	%rbx
	.seh_pushreg	%rbx
	subq	$56, %rsp
	.seh_stackalloc	56
	leaq	48(%rsp), %rbp
	.seh_setframe	%rbp, 48
	.seh_endprologue
	movq	%rcx, 32(%rbp)
	movq	%rdx, 40(%rbp)
	movq	%r8, 48(%rbp)
	movq	%r9, 56(%rbp)
	leaq	40(%rbp), %rax
	movq	%rax, -16(%rbp)
	movq	-16(%rbp), %rbx
	movl	$1, %ecx
	movq	__imp___acrt_iob_func(%rip), %rax
	call	*%rax
	movq	%rax, %rcx
	movq	32(%rbp), %rax
	movq	%rbx, %r8
	movq	%rax, %rdx
	call	__mingw_vfprintf
	movl	%eax, -4(%rbp)
	movl	-4(%rbp), %eax
	addq	$56, %rsp
	popq	%rbx
	popq	%rbp
	ret
	.seh_endproc
	.section .rdata,"dr"
.LC0:
	.ascii "Feature 1 selected\12\0"
	.text
	.globl	feature1
	.def	feature1;	.scl	2;	.type	32;	.endef
	.seh_proc	feature1
feature1:
	pushq	%rbp
	.seh_pushreg	%rbp
	movq	%rsp, %rbp
	.seh_setframe	%rbp, 0
	subq	$32, %rsp
	.seh_stackalloc	32
	.seh_endprologue
	leaq	.LC0(%rip), %rax
	movq	%rax, %rcx
	call	printf
	nop
	addq	$32, %rsp
	popq	%rbp
	ret
	.seh_endproc
	.section .rdata,"dr"
.LC1:
	.ascii "Feature 2 selected\12\0"
	.text
	.globl	feature2
	.def	feature2;	.scl	2;	.type	32;	.endef
	.seh_proc	feature2
feature2:
	pushq	%rbp
	.seh_pushreg	%rbp
	movq	%rsp, %rbp
	.seh_setframe	%rbp, 0
	subq	$32, %rsp
	.seh_stackalloc	32
	.seh_endprologue
	leaq	.LC1(%rip), %rax
	movq	%rax, %rcx
	call	printf
	nop
	addq	$32, %rsp
	popq	%rbp
	ret
	.seh_endproc
	.section .rdata,"dr"
.LC2:
	.ascii "Feature 3 selected\12\0"
	.text
	.globl	feature3
	.def	feature3;	.scl	2;	.type	32;	.endef
	.seh_proc	feature3
feature3:
	pushq	%rbp
	.seh_pushreg	%rbp
	movq	%rsp, %rbp
	.seh_setframe	%rbp, 0
	subq	$32, %rsp
	.seh_stackalloc	32
	.seh_endprologue
	leaq	.LC2(%rip), %rax
	movq	%rax, %rcx
	call	printf
	nop
	addq	$32, %rsp
	popq	%rbp
	ret
	.seh_endproc
	.section .rdata,"dr"
.LC3:
	.ascii "Feature 4 selected\12\0"
	.text
	.globl	feature4
	.def	feature4;	.scl	2;	.type	32;	.endef
	.seh_proc	feature4
feature4:
	pushq	%rbp
	.seh_pushreg	%rbp
	movq	%rsp, %rbp
	.seh_setframe	%rbp, 0
	subq	$32, %rsp
	.seh_stackalloc	32
	.seh_endprologue
	leaq	.LC3(%rip), %rax
	movq	%rax, %rcx
	call	printf
	nop
	addq	$32, %rsp
	popq	%rbp
	ret
	.seh_endproc
	.def	__main;	.scl	2;	.type	32;	.endef
	.section .rdata,"dr"
.LC4:
	.ascii "Option 1\0"
.LC5:
	.ascii "Option 2\0"
.LC6:
	.ascii "Option 3\0"
.LC7:
	.ascii "Option 4\0"
.LC8:
	.ascii "Exit\0"
.LC9:
	.ascii "%d. %s\12\0"
.LC10:
	.ascii "%d\0"
.LC11:
	.ascii "Invalid option!\12\0"
	.text
	.globl	main
	.def	main;	.scl	2;	.type	32;	.endef
	.seh_proc	main
main:
	pushq	%rbp
	.seh_pushreg	%rbp
	movq	%rsp, %rbp
	.seh_setframe	%rbp, 0
	subq	$96, %rsp
	.seh_stackalloc	96
	.seh_endprologue
	call	__main
	leaq	.LC4(%rip), %rax
	movq	%rax, -64(%rbp)
	leaq	.LC5(%rip), %rax
	movq	%rax, -56(%rbp)
	leaq	.LC6(%rip), %rax
	movq	%rax, -48(%rbp)
	leaq	.LC7(%rip), %rax
	movq	%rax, -40(%rbp)
	leaq	.LC8(%rip), %rax
	movq	%rax, -32(%rbp)
	movl	$5, -8(%rbp)
	movl	$0, -4(%rbp)
	jmp	.L10
.L11:
	movl	-4(%rbp), %eax
	cltq
	movq	-64(%rbp,%rax,8), %rdx
	movl	-4(%rbp), %eax
	addl	$1, %eax
	movq	%rdx, %r8
	movl	%eax, %edx
	leaq	.LC9(%rip), %rax
	movq	%rax, %rcx
	call	printf
	addl	$1, -4(%rbp)
.L10:
	movl	-4(%rbp), %eax
	cmpl	-8(%rbp), %eax
	jl	.L11
	leaq	-12(%rbp), %rax
	movq	%rax, %rdx
	leaq	.LC10(%rip), %rax
	movq	%rax, %rcx
	call	scanf
	movl	-12(%rbp), %eax
	cmpl	$4, %eax
	je	.L12
	cmpl	$4, %eax
	jg	.L13
	cmpl	$3, %eax
	je	.L14
	cmpl	$3, %eax
	jg	.L13
	cmpl	$1, %eax
	je	.L15
	cmpl	$2, %eax
	je	.L16
	jmp	.L13
.L15:
	call	feature1
	jmp	.L17
.L16:
	call	feature2
	jmp	.L17
.L14:
	call	feature3
	jmp	.L17
.L12:
	call	feature4
	jmp	.L17
.L13:
	leaq	.LC11(%rip), %rax
	movq	%rax, %rcx
	call	printf
.L17:
	movl	$0, %eax
	addq	$96, %rsp
	popq	%rbp
	ret
	.seh_endproc
	.ident	"GCC: (Rev2, Built by MSYS2 project) 13.2.0"
	.def	__mingw_vfscanf;	.scl	2;	.type	32;	.endef
	.def	__mingw_vfprintf;	.scl	2;	.type	32;	.endef
